; Function Attrs: nounwind uwtable
define hidden noundef zeroext i1 @arena_muzzy_decay_ms_default_set(i64 noundef %decay_ms) local_unnamed_addr #0 {
entry:
  %call = tail call zeroext i1 @decay_ms_valid(i64 noundef %decay_ms) #15
  br i1 %call, label %monotonic.i, label %return

monotonic.i:                                      ; preds = %entry
  store atomic i64 %decay_ms, ptr @muzzy_decay_ms_default.0 monotonic, align 8
  br label %return

return:                                           ; preds = %entry, %monotonic.i
  %retval.0 = xor i1 %call, true
  ret i1 %retval.0
}